; Function Attrs: nounwind uwtable
define zeroext i8 @l___private_Lean_Elab_Declaration_0__Lean_Elab_Command_isInstanceDef(ptr noundef %0) local_unnamed_addr #0 {
  %2 = load ptr, ptr @l___private_Lean_Elab_Declaration_0__Lean_Elab_Command_isNamedDef___closed__5, align 8, !tbaa !9
  %3 = ptrtoint ptr %0 to i64
  %4 = and i64 %3, 1
  %.not = icmp eq i64 %4, 0
  br i1 %.not, label %5, label %lean_inc.exit.thread

5:                                                ; preds = %1
  %.val.i = load i32, ptr %0, align 4, !tbaa !4
  %6 = icmp sgt i32 %.val.i, 0
  br i1 %6, label %7, label %9, !prof !11

7:                                                ; preds = %5
  %8 = add nuw i32 %.val.i, 1
  store i32 %8, ptr %0, align 4, !tbaa !4
  br label %lean_inc.exit

9:                                                ; preds = %5
  %.not.i20 = icmp eq i32 %.val.i, 0
  br i1 %.not.i20, label %lean_inc.exit, label %10

10:                                               ; preds = %9
  tail call void @lean_inc_ref_cold(ptr noundef nonnull %0) #6
  br label %lean_inc.exit

lean_inc.exit:                                    ; preds = %10, %9, %7
  %11 = tail call zeroext i8 @l_Lean_Syntax_isOfKind(ptr noundef nonnull %0, ptr noundef %2) #6
  %12 = icmp eq i8 %11, 0
  br i1 %12, label %16, label %23

lean_inc.exit.thread:                             ; preds = %1
  %13 = tail call zeroext i8 @l_Lean_Syntax_isOfKind(ptr noundef %0, ptr noundef %2) #6
  %14 = icmp eq i8 %13, 0
  br i1 %14, label %lean_dec.exit15, label %.thread21

.thread21:                                        ; preds = %lean_inc.exit.thread
  %15 = tail call ptr @l_Lean_Syntax_getArg(ptr noundef %0, ptr noundef nonnull inttoptr (i64 3 to ptr)) #6
  br label %lean_dec.exit14

16:                                               ; preds = %lean_inc.exit
  %17 = load i32, ptr %0, align 4, !tbaa !4
  %18 = icmp sgt i32 %17, 1
  br i1 %18, label %19, label %21, !prof !11

19:                                               ; preds = %16
  %20 = add nsw i32 %17, -1
  store i32 %20, ptr %0, align 4, !tbaa !4
  br label %lean_dec.exit15

21:                                               ; preds = %16
  %.not.i = icmp eq i32 %17, 0
  br i1 %.not.i, label %lean_dec.exit15, label %22

22:                                               ; preds = %21
  tail call void @lean_dec_ref_cold(ptr noundef nonnull %0) #6
  br label %lean_dec.exit15

23:                                               ; preds = %lean_inc.exit
  %24 = tail call ptr @l_Lean_Syntax_getArg(ptr noundef nonnull %0, ptr noundef nonnull inttoptr (i64 3 to ptr)) #6
  %25 = load i32, ptr %0, align 4, !tbaa !4
  %26 = icmp sgt i32 %25, 1
  br i1 %26, label %27, label %29, !prof !11

27:                                               ; preds = %23
  %28 = add nsw i32 %25, -1
  store i32 %28, ptr %0, align 4, !tbaa !4
  br label %lean_dec.exit14

29:                                               ; preds = %23
  %.not.i16 = icmp eq i32 %25, 0
  br i1 %.not.i16, label %lean_dec.exit14, label %30

30:                                               ; preds = %29
  tail call void @lean_dec_ref_cold(ptr noundef nonnull %0) #6
  br label %lean_dec.exit14

lean_dec.exit14:                                  ; preds = %30, %29, %27, %.thread21
  %31 = phi ptr [ %15, %.thread21 ], [ %24, %27 ], [ %24, %29 ], [ %24, %30 ]
  %32 = tail call ptr @l_Lean_Syntax_getKind(ptr noundef %31) #6
  %33 = load ptr, ptr @l___private_Lean_Elab_Declaration_0__Lean_Elab_Command_isInstanceDef___closed__2, align 8, !tbaa !9
  %34 = tail call zeroext i8 @lean_name_eq(ptr noundef %32, ptr noundef %33) #6
  %35 = ptrtoint ptr %32 to i64
  %36 = and i64 %35, 1
  %.not22 = icmp eq i64 %36, 0
  br i1 %.not22, label %37, label %lean_dec.exit15

37:                                               ; preds = %lean_dec.exit14
  %38 = load i32, ptr %32, align 4, !tbaa !4
  %39 = icmp sgt i32 %38, 1
  br i1 %39, label %40, label %42, !prof !11

40:                                               ; preds = %37
  %41 = add nsw i32 %38, -1
  store i32 %41, ptr %32, align 4, !tbaa !4
  br label %lean_dec.exit15

42:                                               ; preds = %37
  %.not.i18 = icmp eq i32 %38, 0
  br i1 %.not.i18, label %lean_dec.exit15, label %43

43:                                               ; preds = %42
  tail call void @lean_dec_ref_cold(ptr noundef nonnull %32) #6
  br label %lean_dec.exit15

lean_dec.exit15:                                  ; preds = %lean_inc.exit.thread, %lean_dec.exit14, %40, %42, %43, %19, %21, %22
  %.0 = phi i8 [ 0, %22 ], [ 0, %21 ], [ 0, %19 ], [ %34, %43 ], [ %34, %42 ], [ %34, %40 ], [ %34, %lean_dec.exit14 ], [ 0, %lean_inc.exit.thread ]
  ret i8 %.0
}